ccopy_reg
_reconstructor
p0
(ckeystroke_dynamics
KeystrokeCaptureData
p1
c__builtin__
object
p2
Ntp3
Rp4
(dp5
S'_class_version'
p6
I0
sS'log'
p7
(lp8
(I36
I1
I29292974
tp9
a(I44
I0
I29293489
tp10
a(I44
I1
I29293604
tp11
a(I38
I0
I29293654
tp12
a(I44
I0
I29293798
tp13
a(I38
I1
I29293806
tp14
a(I44
I1
I29293903
tp15
a(I40
I0
I29293997
tp16
a(I40
I1
I29294199
tp17
asb.