ccopy_reg
_reconstructor
p0
(ckeystroke_dynamics
KeystrokeCaptureData
p1
c__builtin__
object
p2
Ntp3
Rp4
(dp5
S'_class_version'
p6
I0
sS'log'
p7
(lp8
(I36
I1
I28900224
tp9
a(I43
I0
I28900620
tp10
a(I43
I1
I28900740
tp11
a(I38
I0
I28900782
tp12
a(I43
I0
I28900892
tp13
a(I38
I1
I28900942
tp14
a(I43
I1
I28900985
tp15
a(I38
I0
I28901051
tp16
a(I43
I0
I28901111
tp17
a(I38
I1
I28901171
tp18
a(I43
I1
I28901193
tp19
a(I38
I0
I28901254
tp20
a(I43
I0
I28901300
tp21
a(I38
I1
I28901385
tp22
a(I43
I1
I28901423
tp23
a(I65
I0
I28901540
tp24
a(I65
I1
I28901686
tp25
a(I43
I0
I28901699
tp26
a(I43
I1
I28901793
tp27
a(I38
I0
I28901906
tp28
a(I38
I1
I28902065
tp29
asb.